target datalayout = "e-m:e-p270:32:32-p271:32:32-p272:64:64-i64:64-i128:128-f80:128-n8:16:32:64-S128"
target triple = "x86_64-pc-linux-gnu"

%"class.llvm::ArrayRef" = type { ptr, i64 }
%"class.llvm::SmallVectorBase" = type { ptr, i64, i64 }

@.str.2 = private unnamed_addr constant [18 x i8] c"Allocation failed\00", align 1

; Function Attrs: mustprogress nounwind uwtable
define linkonce_odr hidden noundef ptr @_ZNK4llvm25SmallVectorTemplateCommonIhvE10getFirstElEv(ptr noundef nonnull align 8 dereferenceable(24) %0) #0 comdat align 2 {
  %2 = alloca ptr, align 8
  store ptr %0, ptr %2, align 8
  %3 = load ptr, ptr %2, align 8
  %4 = getelementptr inbounds i8, ptr %3, i64 24
  ret ptr %4
}

; Function Attrs: mustprogress nounwind uwtable
define linkonce_odr hidden void @_ZN4llvm25SmallVectorTemplateCommonIhvE8grow_podEmm(ptr noundef nonnull align 8 dereferenceable(24) %0, i64 noundef %1, i64 noundef %2) #0 comdat align 2 {
  %4 = alloca ptr, align 8
  %5 = alloca i64, align 8
  %6 = alloca i64, align 8
  store ptr %0, ptr %4, align 8
  store i64 %1, ptr %5, align 8
  store i64 %2, ptr %6, align 8
  %7 = load ptr, ptr %4, align 8
  %8 = call noundef ptr @_ZNK4llvm25SmallVectorTemplateCommonIhvE10getFirstElEv(ptr noundef nonnull align 8 dereferenceable(24) %7)
  %9 = load i64, ptr %5, align 8
  %10 = load i64, ptr %6, align 8
  call void @_ZN4llvm15SmallVectorBaseImE8grow_podEPvmm(ptr noundef nonnull align 8 dereferenceable(24) %7, ptr noundef %8, i64 noundef %9, i64 noundef %10)
  ret void
}

; Function Attrs: mustprogress nounwind uwtable
define linkonce_odr hidden void @_ZN4llvm23SmallVectorTemplateBaseIhLb1EE4growEm(ptr noundef nonnull align 8 dereferenceable(24) %0, i64 noundef %1) #0 comdat align 2 {
  %3 = alloca ptr, align 8
  %4 = alloca i64, align 8
  store ptr %0, ptr %3, align 8
  store i64 %1, ptr %4, align 8
  %5 = load ptr, ptr %3, align 8
  %6 = load i64, ptr %4, align 8
  call void @_ZN4llvm25SmallVectorTemplateCommonIhvE8grow_podEmm(ptr noundef nonnull align 8 dereferenceable(24) %5, i64 noundef %6, i64 noundef 1)
  ret void
}

; Function Attrs: mustprogress nounwind uwtable
define linkonce_odr hidden void @_ZN4llvm15SmallVectorImplIhE7reserveEm(ptr noundef nonnull align 8 dereferenceable(24) %0, i64 noundef %1) #0 comdat align 2 {
  %3 = alloca ptr, align 8
  %4 = alloca i64, align 8
  store ptr %0, ptr %3, align 8
  store i64 %1, ptr %4, align 8
  %5 = load ptr, ptr %3, align 8
  %6 = call noundef i64 @_ZNK4llvm15SmallVectorBaseImE8capacityEv(ptr noundef nonnull align 8 dereferenceable(24) %5)
  %7 = load i64, ptr %4, align 8
  %8 = icmp ult i64 %6, %7
  br i1 %8, label %9, label %11

9:                                                ; preds = %2
  %10 = load i64, ptr %4, align 8
  call void @_ZN4llvm23SmallVectorTemplateBaseIhLb1EE4growEm(ptr noundef nonnull align 8 dereferenceable(24) %5, i64 noundef %10)
  br label %11

11:                                               ; preds = %9, %2
  ret void
}

; Function Attrs: mustprogress nounwind uwtable
define linkonce_odr hidden void @_ZN4llvm23SmallVectorTemplateBaseIhLb1EE13destroy_rangeEPhS2_(ptr noundef %0, ptr noundef %1) #0 comdat align 2 {
  %3 = alloca ptr, align 8
  %4 = alloca ptr, align 8
  store ptr %0, ptr %3, align 8
  store ptr %1, ptr %4, align 8
  ret void
}

; Function Attrs: mustprogress nounwind uwtable
define linkonce_odr hidden noundef ptr @_ZN4llvm25SmallVectorTemplateCommonIhvE3endEv(ptr noundef nonnull align 8 dereferenceable(24) %0) #0 comdat align 2 {
  %2 = alloca ptr, align 8
  store ptr %0, ptr %2, align 8
  %3 = load ptr, ptr %2, align 8
  %4 = call noundef ptr @_ZN4llvm25SmallVectorTemplateCommonIhvE5beginEv(ptr noundef nonnull align 8 dereferenceable(24) %3)
  %5 = call noundef i64 @_ZNK4llvm15SmallVectorBaseImE4sizeEv(ptr noundef nonnull align 8 dereferenceable(24) %3)
  %6 = getelementptr inbounds i8, ptr %4, i64 %5
  ret ptr %6
}

; Function Attrs: mustprogress nounwind uwtable
define linkonce_odr hidden noundef ptr @_ZN4llvm25SmallVectorTemplateCommonIhvE5beginEv(ptr noundef nonnull align 8 dereferenceable(24) %0) #0 comdat align 2 {
  %2 = alloca ptr, align 8
  store ptr %0, ptr %2, align 8
  %3 = load ptr, ptr %2, align 8
  %4 = getelementptr inbounds nuw %"class.llvm::SmallVectorBase", ptr %3, i32 0, i32 0
  %5 = load ptr, ptr %4, align 8
  ret ptr %5
}

; Function Attrs: mustprogress nounwind uwtable
define linkonce_odr hidden void @_ZN4llvm15SmallVectorImplIhE10resizeImplILb1EEEvm(ptr noundef nonnull align 8 dereferenceable(24) %0, i64 noundef %1) #0 comdat align 2 {
  %3 = alloca ptr, align 8
  %4 = alloca i64, align 8
  %5 = alloca ptr, align 8
  %6 = alloca ptr, align 8
  store ptr %0, ptr %3, align 8
  store i64 %1, ptr %4, align 8
  %7 = load ptr, ptr %3, align 8
  %8 = load i64, ptr %4, align 8
  %9 = call noundef i64 @_ZNK4llvm15SmallVectorBaseImE4sizeEv(ptr noundef nonnull align 8 dereferenceable(24) %7)
  %10 = icmp eq i64 %8, %9
  br i1 %10, label %11, label %12

11:                                               ; preds = %2
  br label %34

12:                                               ; preds = %2
  %13 = load i64, ptr %4, align 8
  %14 = call noundef i64 @_ZNK4llvm15SmallVectorBaseImE4sizeEv(ptr noundef nonnull align 8 dereferenceable(24) %7)
  %15 = icmp ult i64 %13, %14
  br i1 %15, label %16, label %18

16:                                               ; preds = %12
  %17 = load i64, ptr %4, align 8
  call void @_ZN4llvm15SmallVectorImplIhE8truncateEm(ptr noundef nonnull align 8 dereferenceable(24) %7, i64 noundef %17)
  br label %34

18:                                               ; preds = %12
  %19 = load i64, ptr %4, align 8
  call void @_ZN4llvm15SmallVectorImplIhE7reserveEm(ptr noundef nonnull align 8 dereferenceable(24) %7, i64 noundef %19)
  %20 = call noundef ptr @_ZN4llvm25SmallVectorTemplateCommonIhvE3endEv(ptr noundef nonnull align 8 dereferenceable(24) %7)
  store ptr %20, ptr %5, align 8
  %21 = call noundef ptr @_ZN4llvm25SmallVectorTemplateCommonIhvE5beginEv(ptr noundef nonnull align 8 dereferenceable(24) %7)
  %22 = load i64, ptr %4, align 8
  %23 = getelementptr inbounds i8, ptr %21, i64 %22
  store ptr %23, ptr %6, align 8
  br label %24

24:                                               ; preds = %29, %18
  %25 = load ptr, ptr %5, align 8
  %26 = load ptr, ptr %6, align 8
  %27 = icmp ne ptr %25, %26
  br i1 %27, label %28, label %32

28:                                               ; preds = %24
  br label %29

29:                                               ; preds = %28
  %30 = load ptr, ptr %5, align 8
  %31 = getelementptr inbounds i8, ptr %30, i32 1
  store ptr %31, ptr %5, align 8
  br label %24, !llvm.loop !4

32:                                               ; preds = %24
  %33 = load i64, ptr %4, align 8
  call void @_ZN4llvm15SmallVectorBaseImE8set_sizeEm(ptr noundef nonnull align 8 dereferenceable(24) %7, i64 noundef %33)
  br label %34

34:                                               ; preds = %32, %16, %11
  ret void
}

; Function Attrs: mustprogress nounwind uwtable
define linkonce_odr hidden void @_ZN4llvm15SmallVectorImplIhE8truncateEm(ptr noundef nonnull align 8 dereferenceable(24) %0, i64 noundef %1) #0 comdat align 2 {
  %3 = alloca ptr, align 8
  %4 = alloca i64, align 8
  store ptr %0, ptr %3, align 8
  store i64 %1, ptr %4, align 8
  %5 = load ptr, ptr %3, align 8
  %6 = call noundef ptr @_ZN4llvm25SmallVectorTemplateCommonIhvE5beginEv(ptr noundef nonnull align 8 dereferenceable(24) %5)
  %7 = load i64, ptr %4, align 8
  %8 = getelementptr inbounds i8, ptr %6, i64 %7
  %9 = call noundef ptr @_ZN4llvm25SmallVectorTemplateCommonIhvE3endEv(ptr noundef nonnull align 8 dereferenceable(24) %5)
  call void @_ZN4llvm23SmallVectorTemplateBaseIhLb1EE13destroy_rangeEPhS2_(ptr noundef %8, ptr noundef %9)
  %10 = load i64, ptr %4, align 8
  call void @_ZN4llvm15SmallVectorBaseImE8set_sizeEm(ptr noundef nonnull align 8 dereferenceable(24) %5, i64 noundef %10)
  ret void
}

; Function Attrs: mustprogress nounwind uwtable
define linkonce_odr hidden noundef ptr @_ZNK4llvm8ArrayRefIhE4dataEv(ptr noundef nonnull align 8 dereferenceable(16) %0) #0 comdat align 2 {
  %2 = alloca ptr, align 8
  store ptr %0, ptr %2, align 8
  %3 = load ptr, ptr %2, align 8
  %4 = getelementptr inbounds nuw %"class.llvm::ArrayRef", ptr %3, i32 0, i32 0
  %5 = load ptr, ptr %4, align 8
  ret ptr %5
}

; Function Attrs: mustprogress nounwind uwtable
define linkonce_odr hidden noundef ptr @_ZN4llvm25SmallVectorTemplateCommonIhvE4dataEv(ptr noundef nonnull align 8 dereferenceable(24) %0) #0 comdat align 2 {
  %2 = alloca ptr, align 8
  store ptr %0, ptr %2, align 8
  %3 = load ptr, ptr %2, align 8
  %4 = call noundef ptr @_ZN4llvm25SmallVectorTemplateCommonIhvE5beginEv(ptr noundef nonnull align 8 dereferenceable(24) %3)
  ret ptr %4
}

; Function Attrs: mustprogress nounwind uwtable
define linkonce_odr hidden void @_ZN4llvm15SmallVectorImplIhE20resize_for_overwriteEm(ptr noundef nonnull align 8 dereferenceable(24) %0, i64 noundef %1) #0 comdat align 2 {
  %3 = alloca ptr, align 8
  %4 = alloca i64, align 8
  store ptr %0, ptr %3, align 8
  store i64 %1, ptr %4, align 8
  %5 = load ptr, ptr %3, align 8
  %6 = load i64, ptr %4, align 8
  call void @_ZN4llvm15SmallVectorImplIhE10resizeImplILb1EEEvm(ptr noundef nonnull align 8 dereferenceable(24) %5, i64 noundef %6)
  ret void
}

; Function Attrs: mustprogress nounwind uwtable
define linkonce_odr hidden noundef i64 @_ZNK4llvm8ArrayRefIhE4sizeEv(ptr noundef nonnull align 8 dereferenceable(16) %0) #0 comdat align 2 {
  %2 = alloca ptr, align 8
  store ptr %0, ptr %2, align 8
  %3 = load ptr, ptr %2, align 8
  %4 = getelementptr inbounds nuw %"class.llvm::ArrayRef", ptr %3, i32 0, i32 1
  %5 = load i64, ptr %4, align 8
  ret i64 %5
}

; Function Attrs: mustprogress nounwind uwtable
define dso_local void @_ZN4llvm11compression4zlib8compressENS_8ArrayRefIhEERNS_15SmallVectorImplIhEEi(ptr %0, i64 %1, ptr noundef nonnull align 1 %2, i32 noundef %3) #0 {
  %5 = alloca %"class.llvm::ArrayRef", align 8
  %6 = alloca ptr, align 8
  %7 = alloca i32, align 4
  %8 = alloca i64, align 8
  %9 = alloca i32, align 4
  %10 = getelementptr inbounds nuw { ptr, i64 }, ptr %5, i32 0, i32 0
  store ptr %0, ptr %10, align 8
  %11 = getelementptr inbounds nuw { ptr, i64 }, ptr %5, i32 0, i32 1
  store i64 %1, ptr %11, align 8
  store ptr %2, ptr %6, align 8
  store i32 %3, ptr %7, align 4
  %12 = call noundef i64 @_ZNK4llvm8ArrayRefIhE4sizeEv(ptr noundef nonnull align 8 dereferenceable(16) %5)
  %13 = call i64 @compressBound(i64 noundef %12)
  store i64 %13, ptr %8, align 8
  %14 = load ptr, ptr %6, align 8
  %15 = load i64, ptr %8, align 8
  call void @_ZN4llvm15SmallVectorImplIhE20resize_for_overwriteEm(ptr noundef nonnull align 8 dereferenceable(24) %14, i64 noundef %15)
  %16 = load ptr, ptr %6, align 8
  %17 = call noundef ptr @_ZN4llvm25SmallVectorTemplateCommonIhvE4dataEv(ptr noundef nonnull align 8 dereferenceable(24) %16)
  %18 = call noundef ptr @_ZNK4llvm8ArrayRefIhE4dataEv(ptr noundef nonnull align 8 dereferenceable(16) %5)
  %19 = call noundef i64 @_ZNK4llvm8ArrayRefIhE4sizeEv(ptr noundef nonnull align 8 dereferenceable(16) %5)
  %20 = load i32, ptr %7, align 4
  %21 = call i32 @compress2(ptr noundef %17, ptr noundef %8, ptr noundef %18, i64 noundef %19, i32 noundef %20)
  store i32 %21, ptr %9, align 4
  %22 = load i32, ptr %9, align 4
  %23 = icmp eq i32 %22, -4
  br i1 %23, label %24, label %25

24:                                               ; preds = %4
  call void @_ZN4llvm22report_bad_alloc_errorEPKcb(ptr noundef @.str.2, i1 noundef zeroext true) #7
  unreachable

25:                                               ; preds = %4
  %26 = load i64, ptr %8, align 8
  %27 = load ptr, ptr %6, align 8
  %28 = call noundef i64 @_ZNK4llvm15SmallVectorBaseImE4sizeEv(ptr noundef nonnull align 8 dereferenceable(24) %27)
  %29 = icmp ult i64 %26, %28
  br i1 %29, label %30, label %33

30:                                               ; preds = %25
  %31 = load ptr, ptr %6, align 8
  %32 = load i64, ptr %8, align 8
  call void @_ZN4llvm15SmallVectorImplIhE8truncateEm(ptr noundef nonnull align 8 dereferenceable(24) %31, i64 noundef %32)
  br label %33

33:                                               ; preds = %30, %25
  ret void
}