; Function Attrs: mustprogress nounwind uwtable
define dso_local void @_ZN4llvm11compression4zlib8compressENS_8ArrayRefIhEERNS_15SmallVectorImplIhEEi(ptr %0, i64 %1, ptr noundef nonnull align 1 %2, i32 noundef %3) local_unnamed_addr #1 {
  %5 = alloca i64, align 8
  %6 = tail call i64 @compressBound(i64 noundef %1) #7
  store i64 %6, ptr %5, align 8
  %7 = tail call noundef i64 @_ZNK4llvm15SmallVectorBaseImE4sizeEv(ptr noundef nonnull align 8 dereferenceable(24) %2) #7
  %8 = icmp eq i64 %6, %7
  br i1 %8, label %_ZN4llvm15SmallVectorImplIhE20resize_for_overwriteEm.exit, label %9

9:                                                ; preds = %4
  %10 = tail call noundef i64 @_ZNK4llvm15SmallVectorBaseImE4sizeEv(ptr noundef nonnull align 8 dereferenceable(24) %2) #7
  %11 = icmp ult i64 %6, %10
  br i1 %11, label %.sink.split.i.i, label %12

12:                                               ; preds = %9
  %13 = tail call noundef i64 @_ZNK4llvm15SmallVectorBaseImE8capacityEv(ptr noundef nonnull align 8 dereferenceable(24) %2) #7
  %14 = icmp ult i64 %13, %6
  br i1 %14, label %15, label %.sink.split.i.i

15:                                               ; preds = %12
  %16 = getelementptr inbounds i8, ptr %2, i64 24
  tail call void @_ZN4llvm15SmallVectorBaseImE8grow_podEPvmm(ptr noundef nonnull align 8 dereferenceable(24) %2, ptr noundef nonnull %16, i64 noundef %6, i64 noundef 1) #7
  br label %.sink.split.i.i

.sink.split.i.i:                                  ; preds = %15, %12, %9
  %17 = tail call noundef i64 @_ZNK4llvm15SmallVectorBaseImE4sizeEv(ptr noundef nonnull align 8 dereferenceable(24) %2) #7
  tail call void @_ZN4llvm15SmallVectorBaseImE8set_sizeEm(ptr noundef nonnull align 8 dereferenceable(24) %2, i64 noundef %6) #7
  br label %_ZN4llvm15SmallVectorImplIhE20resize_for_overwriteEm.exit

_ZN4llvm15SmallVectorImplIhE20resize_for_overwriteEm.exit: ; preds = %4, %.sink.split.i.i
  %18 = load ptr, ptr %2, align 8
  %19 = call i32 @compress2(ptr noundef %18, ptr noundef nonnull %5, ptr noundef %0, i64 noundef %1, i32 noundef %3) #7
  %20 = icmp eq i32 %19, -4
  br i1 %20, label %21, label %22

21:                                               ; preds = %_ZN4llvm15SmallVectorImplIhE20resize_for_overwriteEm.exit
  call void @_ZN4llvm22report_bad_alloc_errorEPKcb(ptr noundef nonnull @.str.2, i1 noundef zeroext true) #8
  unreachable

22:                                               ; preds = %_ZN4llvm15SmallVectorImplIhE20resize_for_overwriteEm.exit
  %23 = load i64, ptr %5, align 8
  %24 = call noundef i64 @_ZNK4llvm15SmallVectorBaseImE4sizeEv(ptr noundef nonnull align 8 dereferenceable(24) %2) #7
  %25 = icmp ult i64 %23, %24
  br i1 %25, label %26, label %29

26:                                               ; preds = %22
  %27 = load i64, ptr %5, align 8
  %28 = call noundef i64 @_ZNK4llvm15SmallVectorBaseImE4sizeEv(ptr noundef nonnull align 8 dereferenceable(24) %2) #7
  call void @_ZN4llvm15SmallVectorBaseImE8set_sizeEm(ptr noundef nonnull align 8 dereferenceable(24) %2, i64 noundef %27) #7
  br label %29

29:                                               ; preds = %26, %22
  ret void
}